; Function Attrs: mustprogress nounwind uwtable
define hidden { i32, i64 } @_ZN6hermes2vm22objectPrototypeValueOfEPvRNS0_7RuntimeENS0_10NativeArgsE(ptr readnone captures(none) %0, ptr noundef nonnull align 8 dereferenceable(9832) %runtime, ptr noundef readonly captures(none) %args) #0 {
entry:
  %1 = load ptr, ptr %args, align 8, !noalias !10
  %call4 = tail call { i32, i64 } @_ZN6hermes2vm8toObjectERNS0_7RuntimeENS0_6HandleINS0_11HermesValueEEE(ptr noundef nonnull align 8 dereferenceable(9832) %runtime, ptr %1) #8
  %2 = extractvalue { i32, i64 } %call4, 0
  %3 = extractvalue { i32, i64 } %call4, 1
  %cmp.i = icmp eq i32 %2, 0
  %spec.select = select i1 %cmp.i, i64 undef, i64 %3
  %.fca.1.insert = insertvalue { i32, i64 } %call4, i64 %spec.select, 1
  ret { i32, i64 } %.fca.1.insert
}